; Function Attrs: mustprogress uwtable
define hidden void @_ZN3sat4prob10do_restartEv(ptr noundef nonnull align 8 dereferenceable(816) %this) local_unnamed_addr #6 align 2 {
entry:
  %m_values.i.i = getelementptr inbounds i8, ptr %this, i64 656
  %m_rand.i.i = getelementptr inbounds i8, ptr %this, i64 744
  %m_config.i.i = getelementptr inbounds i8, ptr %this, i64 8
  %m_best_values7.i.i = getelementptr inbounds i8, ptr %this, i64 664
  br label %for.cond.i.i

for.cond.i.i:                                     ; preds = %for.body.i.i, %entry
  %indvars.iv.i.i = phi i64 [ %indvars.iv.next.i.i, %for.body.i.i ], [ 0, %entry ]
  %0 = load ptr, ptr %m_values.i.i, align 8
  %cmp.i.i.i = icmp eq ptr %0, null
  br i1 %cmp.i.i.i, label %_ZNK6vectorIbLb0EjE4sizeEv.exit.i.i, label %if.end.i.i.i

if.end.i.i.i:                                     ; preds = %for.cond.i.i
  %arrayidx.i.i.i = getelementptr inbounds i8, ptr %0, i64 -4
  %1 = load i32, ptr %arrayidx.i.i.i, align 4
  br label %_ZNK6vectorIbLb0EjE4sizeEv.exit.i.i

_ZNK6vectorIbLb0EjE4sizeEv.exit.i.i:              ; preds = %if.end.i.i.i, %for.cond.i.i
  %retval.0.i.i.i = phi i32 [ %1, %if.end.i.i.i ], [ 0, %for.cond.i.i ]
  %2 = zext i32 %retval.0.i.i.i to i64
  %cmp.i.i = icmp ult i64 %indvars.iv.i.i, %2
  br i1 %cmp.i.i, label %for.body.i.i, label %_ZN3sat4prob13reinit_valuesEv.exit

for.body.i.i:                                     ; preds = %_ZNK6vectorIbLb0EjE4sizeEv.exit.i.i
  %3 = load i32, ptr %m_rand.i.i, align 8
  %mul.i.i.i.i = mul i32 %3, 214013
  %add.i.i.i.i = add i32 %mul.i.i.i.i, 2531011
  store i32 %add.i.i.i.i, ptr %m_rand.i.i, align 8
  %shr.i.i.i.i = lshr i32 %add.i.i.i.i, 16
  %4 = trunc i32 %shr.i.i.i.i to i16
  %rem.i.lhs.trunc.i.i = and i16 %4, 32767
  %rem.i13.i.i = urem i16 %rem.i.lhs.trunc.i.i, 100
  %rem.i.zext.i.i = zext nneg i16 %rem.i13.i.i to i32
  %5 = load i32, ptr %m_config.i.i, align 8
  %cmp3.i.i = icmp ugt i32 %5, %rem.i.zext.i.i
  %6 = load ptr, ptr %m_best_values7.i.i, align 8
  %arrayidx.i6.i.i = getelementptr inbounds i8, ptr %6, i64 %indvars.iv.i.i
  %7 = load i8, ptr %arrayidx.i6.i.i, align 1
  %8 = and i8 %7, 1
  %frombool.i.i = zext i1 %cmp3.i.i to i8
  %.sink.i.i = xor i8 %8, %frombool.i.i
  %9 = getelementptr inbounds i8, ptr %0, i64 %indvars.iv.i.i
  store i8 %.sink.i.i, ptr %9, align 1
  %indvars.iv.next.i.i = add nuw nsw i64 %indvars.iv.i.i, 1
  br label %for.cond.i.i, !llvm.loop !6

_ZN3sat4prob13reinit_valuesEv.exit:               ; preds = %_ZNK6vectorIbLb0EjE4sizeEv.exit.i.i
  tail call void @_ZN3sat4prob12init_clausesEv(ptr noundef nonnull align 8 dereferenceable(816) %this)
  %m_restart_offset = getelementptr inbounds i8, ptr %this, i64 12
  %10 = load i32, ptr %m_restart_offset, align 4
  %m_restart_count = getelementptr inbounds i8, ptr %this, i64 776
  %11 = load i32, ptr %m_restart_count, align 8
  %inc = add i32 %11, 1
  store i32 %inc, ptr %m_restart_count, align 8
  %call = tail call noundef i32 @_Z8get_lubyj(i32 noundef %11)
  %mul = mul i32 %call, %10
  %conv = zext i32 %mul to i64
  %m_next_restart = getelementptr inbounds i8, ptr %this, i64 768
  %12 = load i64, ptr %m_next_restart, align 8
  %add = add i64 %12, %conv
  store i64 %add, ptr %m_next_restart, align 8
  tail call void @_ZN3sat4prob3logEv(ptr noundef nonnull align 8 dereferenceable(816) %this)
  ret void
}